; Function Attrs: nofree norecurse nosync nounwind memory(none) uwtable
define dso_local ptr @ssl_session_ticket_name(i32 noundef %0) local_unnamed_addr #0 {
  br label %4

2:                                                ; preds = %4
  %3 = add nuw nsw i64 %.09.i, 1
  %exitcond.not.i = icmp eq i64 %3, 3
  br i1 %exitcond.not.i, label %enum_name.exit, label %4, !llvm.loop !4

4:                                                ; preds = %2, %1
  %.09.i = phi i64 [ 0, %1 ], [ %3, %2 ]
  %5 = getelementptr inbounds nuw %struct.test_enum, ptr @ssl_session_id, i64 %.09.i
  %6 = getelementptr inbounds nuw i8, ptr %5, i64 8
  %7 = load i32, ptr %6, align 8, !tbaa !6
  %8 = icmp eq i32 %7, %0
  br i1 %8, label %9, label %2

9:                                                ; preds = %4
  %10 = load ptr, ptr %5, align 8, !tbaa !13
  br label %enum_name.exit

enum_name.exit:                                   ; preds = %2, %9
  %.08.i = phi ptr [ %10, %9 ], [ @.str.11, %2 ]
  ret ptr %.08.i
}